	.file "/lama-tutor/syntax.lama"

	.stabs "/lama-tutor/syntax.lama",100,0,0,.Ltext

	.globl	main

	.data

string_0:	.string	"%d\n"

_init:	.int 0

	.section custom_data,"aw",@progbits

filler:	.fill	4, 4, 1

	.stabs "bar:S1",40,0,0,global_bar

global_bar:	.int	1

	.text

.Ltext:

	.stabs "data:t1=r1;0;4294967295;",128,0,0,0

# PUBLIC ("main") / 

# EXTERN ("Lfilter") / 

# EXTERN ("Lremove") / 

# EXTERN ("Lunzip") / 

# EXTERN ("Lzip") / 

# EXTERN ("LdeepFlatten") / 

# EXTERN ("Lflatten") / 

# EXTERN ("Lfind") / 

# EXTERN ("Lassoc") / 

# EXTERN ("Lreverse") / 

# EXTERN ("Li__Infix_434343") / 

# EXTERN ("Lmap") / 

# EXTERN ("Liter") / 

# EXTERN ("Lfoldr") / 

# EXTERN ("Lfoldl") / 

# EXTERN ("Lsize") / 

# EXTERN ("Lfix") / 

# EXTERN ("Li__Infix_35") / 

# EXTERN ("Li__Infix_36") / 

# EXTERN ("Lid") / 

# EXTERN ("LtagHash") / 

# EXTERN ("LflatCompare") / 

# EXTERN ("LcompareTags") / 

# EXTERN ("LkindOf") / 

# EXTERN ("Ltime") / 

# EXTERN ("Lrandom") / 

# EXTERN ("LdisableGC") / 

# EXTERN ("LenableGC") / 

# EXTERN ("Ls__Infix_37") / 

# EXTERN ("Ls__Infix_47") / 

# EXTERN ("Ls__Infix_42") / 

# EXTERN ("Ls__Infix_45") / 

# EXTERN ("Ls__Infix_43") / 

# EXTERN ("Ls__Infix_62") / 

# EXTERN ("Ls__Infix_6261") / 

# EXTERN ("Ls__Infix_60") / 

# EXTERN ("Ls__Infix_6061") / 

# EXTERN ("Ls__Infix_3361") / 

# EXTERN ("Ls__Infix_6161") / 

# EXTERN ("Ls__Infix_3838") / 

# EXTERN ("Ls__Infix_3333") / 

# EXTERN ("Ls__Infix_58") / 

# EXTERN ("Li__Infix_4343") / 

# EXTERN ("Lcompare") / 

# EXTERN ("Lwrite") / 

# EXTERN ("Lread") / 

# EXTERN ("Lfailure") / 

# EXTERN ("Lfwrite") / 

# EXTERN ("Lfread") / 

# EXTERN ("Lfclose") / 

# EXTERN ("Lfopen") / 

# EXTERN ("Lfprintf") / 

# EXTERN ("Lprintf") / 

# EXTERN ("LmakeString") / 

# EXTERN ("Lsprintf") / 

# EXTERN ("LregexpMatch") / 

# EXTERN ("Lregexp") / 

# EXTERN ("Lsubstring") / 

# EXTERN ("LmatchSubString") / 

# EXTERN ("Lstringcat") / 

# EXTERN ("LreadLine") / 

# EXTERN ("Ltl") / 

# EXTERN ("Lhd") / 

# EXTERN ("Lsnd") / 

# EXTERN ("Lfst") / 

# EXTERN ("Lhash") / 

# EXTERN ("Lclone") / 

# EXTERN ("Llength") / 

# EXTERN ("Lstring") / 

# EXTERN ("LmakeArray") / 

# EXTERN ("LstringInt") / 

# EXTERN ("global_sysargs") / 

# EXTERN ("Lsystem") / 

# EXTERN ("LgetEnv") / 

# EXTERN ("Lassert") / 

# LABEL ("main") / 

main:

# BEGIN ("main", 2, 0, [], [], []) / 

	.type main, @function

	.cfi_startproc

	movl	_init,	%eax
	test	%eax,	%eax
	jz	_continue
	ret
_continue:

	movl	$1,	_init
	pushl	%ebp
	.cfi_def_cfa_offset	8

	.cfi_offset 5, -8

	movl	%esp,	%ebp
	.cfi_def_cfa_register	5

	subl	$Lmain_SIZE,	%esp
	movl	%esp,	%edi
	movl	$filler,	%esi
	movl	$LSmain_SIZE,	%ecx
	rep movsl	
	call	__gc_init
	pushl	12(%ebp)
	pushl	8(%ebp)
	call	set_args
	addl	$8,	%esp
	call	initFun
	call	initList
# SLABEL ("L1") / 

L1:

# CLOSURE ("Li__Infix_35", []) / 

	pushl	$Li__Infix_35
	pushl	$1
	call	Bclosure
	addl	$8,	%esp
	movl	%eax,	%ebx
# CLOSURE ("Lid", []) / 

	pushl	%ebx
	pushl	$Lid
	pushl	$1
	call	Bclosure
	addl	$8,	%esp
	movl	%eax,	%ecx
	popl	%ebx
# CLOSURE ("Llambda_0", []) / 

	pushl	%ebx
	pushl	%ecx
	pushl	$Llambda_0
	pushl	$1
	call	Bclosure
	addl	$8,	%esp
	movl	%eax,	%esi
	popl	%ecx
	popl	%ebx
# CONST (1) / 

	movl	$3,	%edi
# CONST (2) / 

	movl	$5,	-4(%ebp)
# CONST (3) / 

	movl	$7,	-8(%ebp)
# CONST (0) / 

	movl	$1,	-12(%ebp)
# SEXP ("cons", 2) / 

	movl	$1697575,	-16(%ebp)
	pushl	%ebx
	pushl	%ecx
	pushl	%esi
	pushl	%edi
	pushl	-16(%ebp)
	pushl	-12(%ebp)
	pushl	-8(%ebp)
	pushl	$7
	call	Bsexp
	addl	$16,	%esp
	popl	%edi
	popl	%esi
	popl	%ecx
	popl	%ebx
	movl	%eax,	-8(%ebp)
# SEXP ("cons", 2) / 

	movl	$1697575,	-12(%ebp)
	pushl	%ebx
	pushl	%ecx
	pushl	%esi
	pushl	%edi
	pushl	-12(%ebp)
	pushl	-8(%ebp)
	pushl	-4(%ebp)
	pushl	$7
	call	Bsexp
	addl	$16,	%esp
	popl	%edi
	popl	%esi
	popl	%ecx
	popl	%ebx
	movl	%eax,	-4(%ebp)
# SEXP ("cons", 2) / 

	movl	$1697575,	-8(%ebp)
	pushl	%ebx
	pushl	%ecx
	pushl	%esi
	pushl	-8(%ebp)
	pushl	-4(%ebp)
	pushl	%edi
	pushl	$7
	call	Bsexp
	addl	$16,	%esp
	popl	%esi
	popl	%ecx
	popl	%ebx
	movl	%eax,	%edi
# CALL ("Lmap", 2, false) / 

	pushl	%ebx
	pushl	%ecx
	pushl	%edi
	pushl	%esi
	call	Lmap
	addl	$8,	%esp
	popl	%ecx
	popl	%ebx
	movl	%eax,	%esi
# CALL ("Lfoldl", 3, false) / 

	pushl	%esi
	pushl	%ecx
	pushl	%ebx
	call	Lfoldl
	addl	$12,	%esp
	movl	%eax,	%ebx
# LINE (37) / 

	.stabn 68,0,37,.L0

.L0:

# ST (Global ("bar")) / 

	movl	%ebx,	global_bar
# DROP / 

# STRING ("%d\\n") / 

	movl	$string_0,	%ebx
	pushl	%ebx
	call	Bstring
	addl	$4,	%esp
	movl	%eax,	%ebx
# LINE (39) / 

	.stabn 68,0,39,.L1

.L1:

# LD (Global ("bar")) / 

	movl	global_bar,	%ecx
# CONST (10) / 

	movl	$21,	%esi
# CALL ("Li__Infix_36", 2, false) / 

	pushl	%ebx
	pushl	%esi
	pushl	%ecx
	call	Li__Infix_36
	addl	$8,	%esp
	popl	%ebx
	movl	%eax,	%ecx
# CALL ("Lprintf", 2, false) / 

	pushl	%ecx
	pushl	%ebx
	call	Lprintf
	addl	$8,	%esp
	movl	%eax,	%ebx
# SLABEL ("L2") / 

L2:

# END / 

	movl	%ebx,	%eax
Lmain_epilogue:

	movl	%ebp,	%esp
	popl	%ebp
	xorl	%eax,	%eax
	.cfi_restore	5

	.cfi_def_cfa	4, 4

	ret
	.cfi_endproc

	.set	Lmain_SIZE,	16

	.set	LSmain_SIZE,	4

	.size main, .-main

# LABEL ("Llambda_0") / 

Llambda_0:

# BEGIN ("Llambda_0", 1, 0, [], ["i"], [{ blab="L21"; elab="L22"; names=[]; subs=[{ blab="L24"; elab="L25"; names=[]; subs=[]; }]; }]) / 

	.type lambda_0, @function

	.stabs "lambda_0:F1",36,0,0,Llambda_0

	.stabs "i:p1",160,0,0,8

	.cfi_startproc

	pushl	%ebp
	.cfi_def_cfa_offset	8

	.cfi_offset 5, -8

	movl	%esp,	%ebp
	.cfi_def_cfa_register	5

	subl	$LLlambda_0_SIZE,	%esp
	movl	%esp,	%edi
	movl	$filler,	%esi
	movl	$LSLlambda_0_SIZE,	%ecx
	rep movsl	
# SLABEL ("L21") / 

L21:

# SLABEL ("L24") / 

L24:

# LINE (37) / 

	.stabn 68,0,37,0

	.stabn 68,0,37,.L2-Llambda_0

.L2:

# CLOSURE ("Llambda_1_3", [Arg (0)]) / 

	pushl	8(%ebp)
	pushl	$Llambda_1_3
	pushl	$3
	call	Bclosure
	addl	$12,	%esp
	movl	%eax,	%ebx
# SLABEL ("L25") / 

L25:

# LABEL ("L23") / 

L23:

# SLABEL ("L22") / 

L22:

# END / 

	movl	%ebx,	%eax
LLlambda_0_epilogue:

	movl	%ebp,	%esp
	popl	%ebp
	.cfi_restore	5

	.cfi_def_cfa	4, 4

	ret
	.cfi_endproc

	.set	LLlambda_0_SIZE,	0

	.set	LSLlambda_0_SIZE,	0

	.size Llambda_0, .-Llambda_0

# LABEL ("Llambda_1_3") / 

Llambda_1_3:

# BEGIN ("Llambda_1_3", 1, 0, [Arg (0)], ["x"], [{ blab="L26"; elab="L27"; names=[]; subs=[{ blab="L29"; elab="L30"; names=[]; subs=[]; }]; }]) / 

	.type lambda_1_3, @function

	.stabs "lambda_1_3:F1",36,0,0,Llambda_1_3

	.stabs "x:p1",160,0,0,8

	.cfi_startproc

	pushl	%edx
	pushl	%ebp
	.cfi_def_cfa_offset	12

	.cfi_offset 5, -12

	movl	%esp,	%ebp
	.cfi_def_cfa_register	5

	subl	$LLlambda_1_3_SIZE,	%esp
	movl	%esp,	%edi
	movl	$filler,	%esi
	movl	$LSLlambda_1_3_SIZE,	%ecx
	rep movsl	
# SLABEL ("L26") / 

L26:

# SLABEL ("L29") / 

L29:

# LD (Arg (0)) / 

	movl	12(%ebp),	%ebx
# LD (Access (0)) / 

	movl	4(%edx),	%ecx
# BINOP ("+") / 

	addl	%ecx,	%ebx
	decl	%ebx
# SLABEL ("L30") / 

L30:

# LABEL ("L28") / 

L28:

# SLABEL ("L27") / 

L27:

# END / 

	movl	%ebx,	%eax
LLlambda_1_3_epilogue:

	movl	%ebp,	%esp
	popl	%ebp
	popl	%edx
	.cfi_restore	5

	.cfi_def_cfa	4, 4

	ret
	.cfi_endproc

	.set	LLlambda_1_3_SIZE,	0

	.set	LSLlambda_1_3_SIZE,	0

	.size Llambda_1_3, .-Llambda_1_3

# LABEL ("Lfoo") / 

Lfoo:

# BEGIN ("Lfoo", 1, 0, [], ["x"], [{ blab="L33"; elab="L34"; names=[]; subs=[{ blab="L36"; elab="L37"; names=[]; subs=[]; }]; }]) / 

	.type foo, @function

	.stabs "foo:F1",36,0,0,Lfoo

	.stabs "x:p1",160,0,0,8

	.cfi_startproc

	pushl	%ebp
	.cfi_def_cfa_offset	8

	.cfi_offset 5, -8

	movl	%esp,	%ebp
	.cfi_def_cfa_register	5

	subl	$LLfoo_SIZE,	%esp
	movl	%esp,	%edi
	movl	$filler,	%esi
	movl	$LSLfoo_SIZE,	%ecx
	rep movsl	
# SLABEL ("L33") / 

L33:

# SLABEL ("L36") / 

L36:

# LINE (33) / 

	.stabn 68,0,33,0

	.stabn 68,0,33,.L3-Lfoo

.L3:

# LD (Arg (0)) / 

	movl	8(%ebp),	%ebx
# CONST (2) / 

	movl	$5,	%ecx
# BINOP ("/") / 

	movl	%ebx,	%eax
	sarl	%eax
	cltd
	sarl	%ecx
	idivl	%ecx
	sall	%eax
	orl	$0x0001,	%eax
	movl	%eax,	%ebx
# SLABEL ("L37") / 

L37:

# LABEL ("L35") / 

L35:

# SLABEL ("L34") / 

L34:

# END / 

	movl	%ebx,	%eax
LLfoo_epilogue:

	movl	%ebp,	%esp
	popl	%ebp
	.cfi_restore	5

	.cfi_def_cfa	4, 4

	ret
	.cfi_endproc

	.set	LLfoo_SIZE,	0

	.set	LSLfoo_SIZE,	0

	.size Lfoo, .-Lfoo

